target datalayout = "e-m:e-p270:32:32-p271:32:32-p272:64:64-i64:64-i128:128-f80:128-n8:16:32:64-S128"
target triple = "x86_64-unknown-linux-gnu"

@.str = private unnamed_addr constant [22 x i8] c"start >= 0 && nr >= 0\00", align 1
@.str.1 = private unnamed_addr constant [22 x i8] c"../qemu/util/bitmap.c\00", align 1
@__PRETTY_FUNCTION__.bitmap_test_and_clear_atomic = private unnamed_addr constant [64 x i8] c"_Bool bitmap_test_and_clear_atomic(unsigned long *, long, long)\00", align 1
@__func__.bitmap_test_and_clear_atomic = private unnamed_addr constant [29 x i8] c"bitmap_test_and_clear_atomic\00", align 1

; Function Attrs: nounwind sspstrong uwtable
define dso_local zeroext i1 @bitmap_test_and_clear_atomic(ptr noundef %map, i64 noundef %start, i64 noundef %nr) #0 {
entry:
  %map.addr = alloca ptr, align 8
  %start.addr = alloca i64, align 8
  %nr.addr = alloca i64, align 8
  %p = alloca ptr, align 8
  %size = alloca i64, align 8
  %bits_to_clear = alloca i32, align 4
  %mask_to_clear = alloca i64, align 8
  %dirty = alloca i64, align 8
  %old_bits = alloca i64, align 8
  %.atomictmp = alloca i64, align 8
  %atomic-temp = alloca i64, align 8
  %tmp = alloca i64, align 8
  %tmp22 = alloca i64, align 8
  %.atomictmp23 = alloca i64, align 8
  %atomic-temp24 = alloca i64, align 8
  %.atomictmp36 = alloca i64, align 8
  %atomic-temp38 = alloca i64, align 8
  store ptr %map, ptr %map.addr, align 8
  store i64 %start, ptr %start.addr, align 8
  store i64 %nr, ptr %nr.addr, align 8
  %0 = load ptr, ptr %map.addr, align 8
  %1 = load i64, ptr %start.addr, align 8
  %div = udiv i64 %1, 64
  %add.ptr = getelementptr i64, ptr %0, i64 %div
  store ptr %add.ptr, ptr %p, align 8
  %2 = load i64, ptr %start.addr, align 8
  %3 = load i64, ptr %nr.addr, align 8
  %add = add i64 %2, %3
  store i64 %add, ptr %size, align 8
  %4 = load i64, ptr %start.addr, align 8
  %rem = urem i64 %4, 64
  %sub = sub i64 64, %rem
  %conv = trunc i64 %sub to i32
  store i32 %conv, ptr %bits_to_clear, align 4
  %5 = load i64, ptr %start.addr, align 8
  %and = and i64 %5, 63
  %shl = shl i64 -1, %and
  store i64 %shl, ptr %mask_to_clear, align 8
  store i64 0, ptr %dirty, align 8
  %6 = load i64, ptr %start.addr, align 8
  %cmp = icmp sge i64 %6, 0
  br i1 %cmp, label %land.lhs.true, label %if.else

land.lhs.true:                                    ; preds = %entry
  %7 = load i64, ptr %nr.addr, align 8
  %cmp2 = icmp sge i64 %7, 0
  br i1 %cmp2, label %if.then, label %if.else

if.then:                                          ; preds = %land.lhs.true
  br label %if.end

if.else:                                          ; preds = %land.lhs.true, %entry
  call void @__assert_fail(ptr noundef @.str, ptr noundef @.str.1, i32 noundef 297, ptr noundef @__PRETTY_FUNCTION__.bitmap_test_and_clear_atomic) #6
  unreachable

if.end:                                           ; preds = %if.then
  %8 = load i64, ptr %nr.addr, align 8
  %9 = load i32, ptr %bits_to_clear, align 4
  %conv4 = sext i32 %9 to i64
  %sub5 = sub i64 %8, %conv4
  %cmp6 = icmp sgt i64 %sub5, 0
  br i1 %cmp6, label %if.then8, label %if.end12

if.then8:                                         ; preds = %if.end
  %10 = load ptr, ptr %p, align 8
  %11 = load i64, ptr %mask_to_clear, align 8
  %not = xor i64 %11, -1
  store i64 %not, ptr %.atomictmp, align 8
  %12 = load i64, ptr %.atomictmp, align 8
  %13 = atomicrmw and ptr %10, i64 %12 seq_cst, align 8
  store i64 %13, ptr %atomic-temp, align 8
  %14 = load i64, ptr %atomic-temp, align 8
  store i64 %14, ptr %old_bits, align 8
  %15 = load i64, ptr %old_bits, align 8
  %16 = load i64, ptr %mask_to_clear, align 8
  %and9 = and i64 %15, %16
  %17 = load i64, ptr %dirty, align 8
  %or = or i64 %17, %and9
  store i64 %or, ptr %dirty, align 8
  %18 = load i32, ptr %bits_to_clear, align 4
  %conv10 = sext i32 %18 to i64
  %19 = load i64, ptr %nr.addr, align 8
  %sub11 = sub i64 %19, %conv10
  store i64 %sub11, ptr %nr.addr, align 8
  store i32 64, ptr %bits_to_clear, align 4
  store i64 -1, ptr %mask_to_clear, align 8
  %20 = load ptr, ptr %p, align 8
  %incdec.ptr = getelementptr i64, ptr %20, i32 1
  store ptr %incdec.ptr, ptr %p, align 8
  br label %if.end12

if.end12:                                         ; preds = %if.then8, %if.end
  %21 = load i32, ptr %bits_to_clear, align 4
  %conv13 = sext i32 %21 to i64
  %cmp14 = icmp eq i64 %conv13, 64
  br i1 %cmp14, label %if.then16, label %if.end30

if.then16:                                        ; preds = %if.end12
  br label %while.cond

while.cond:                                       ; preds = %if.end26, %if.then16
  %22 = load i64, ptr %nr.addr, align 8
  %cmp17 = icmp uge i64 %22, 64
  br i1 %cmp17, label %while.body, label %while.end29

while.body:                                       ; preds = %while.cond
  %23 = load ptr, ptr %p, align 8
  %24 = load i64, ptr %23, align 8
  %tobool = icmp ne i64 %24, 0
  br i1 %tobool, label %if.then19, label %if.end26

if.then19:                                        ; preds = %while.body
  br label %while.cond20

while.cond20:                                     ; preds = %do.end, %if.then19
  br i1 false, label %while.body21, label %while.end

while.body21:                                     ; preds = %while.cond20
  br label %do.body

do.body:                                          ; preds = %while.body21
  call void @g_assertion_message_expr(ptr noundef null, ptr noundef @.str.1, i32 noundef 313, ptr noundef @__func__.bitmap_test_and_clear_atomic, ptr noundef null) #8
  unreachable

do.end:                                           ; No predecessors!
  br label %while.cond20

while.end:                                        ; preds = %while.cond20
  %25 = load ptr, ptr %p, align 8
  store i64 0, ptr %.atomictmp23, align 8
  %26 = load i64, ptr %.atomictmp23, align 8
  %27 = atomicrmw xchg ptr %25, i64 %26 seq_cst, align 8
  store i64 %27, ptr %atomic-temp24, align 8
  %28 = load i64, ptr %atomic-temp24, align 8
  store i64 %28, ptr %tmp22, align 8
  %29 = load i64, ptr %tmp22, align 8
  store i64 %29, ptr %tmp, align 8
  %30 = load i64, ptr %tmp, align 8
  store i64 %30, ptr %old_bits, align 8
  %31 = load i64, ptr %old_bits, align 8
  %32 = load i64, ptr %dirty, align 8
  %or25 = or i64 %32, %31
  store i64 %or25, ptr %dirty, align 8
  br label %if.end26

if.end26:                                         ; preds = %while.end, %while.body
  %33 = load i64, ptr %nr.addr, align 8
  %sub27 = sub i64 %33, 64
  store i64 %sub27, ptr %nr.addr, align 8
  %34 = load ptr, ptr %p, align 8
  %incdec.ptr28 = getelementptr i64, ptr %34, i32 1
  store ptr %incdec.ptr28, ptr %p, align 8
  br label %while.cond, !llvm.loop !19

while.end29:                                      ; preds = %while.cond
  br label %if.end30

if.end30:                                         ; preds = %while.end29, %if.end12
  %35 = load i64, ptr %nr.addr, align 8
  %tobool31 = icmp ne i64 %35, 0
  br i1 %tobool31, label %if.then32, label %if.else41

if.then32:                                        ; preds = %if.end30
  %36 = load i64, ptr %size, align 8
  %sub33 = sub i64 0, %36
  %and34 = and i64 %sub33, 63
  %shr = lshr i64 -1, %and34
  %37 = load i64, ptr %mask_to_clear, align 8
  %and35 = and i64 %37, %shr
  store i64 %and35, ptr %mask_to_clear, align 8
  %38 = load ptr, ptr %p, align 8
  %39 = load i64, ptr %mask_to_clear, align 8
  %not37 = xor i64 %39, -1
  store i64 %not37, ptr %.atomictmp36, align 8
  %40 = load i64, ptr %.atomictmp36, align 8
  %41 = atomicrmw and ptr %38, i64 %40 seq_cst, align 8
  store i64 %41, ptr %atomic-temp38, align 8
  %42 = load i64, ptr %atomic-temp38, align 8
  store i64 %42, ptr %old_bits, align 8
  %43 = load i64, ptr %old_bits, align 8
  %44 = load i64, ptr %mask_to_clear, align 8
  %and39 = and i64 %43, %44
  %45 = load i64, ptr %dirty, align 8
  %or40 = or i64 %45, %and39
  store i64 %or40, ptr %dirty, align 8
  br label %if.end45

if.else41:                                        ; preds = %if.end30
  %46 = load i64, ptr %dirty, align 8
  %tobool42 = icmp ne i64 %46, 0
  br i1 %tobool42, label %if.end44, label %if.then43

if.then43:                                        ; preds = %if.else41
  call void asm sideeffect "", "~{memory},~{dirflag},~{fpsr},~{flags}"() #7, !srcloc !20
  fence seq_cst
  br label %if.end44

if.end44:                                         ; preds = %if.then43, %if.else41
  br label %if.end45

if.end45:                                         ; preds = %if.end44, %if.then32
  %47 = load i64, ptr %dirty, align 8
  %cmp46 = icmp ne i64 %47, 0
  ret i1 %cmp46
}