; Function Attrs: nounwind sspstrong uwtable
define dso_local zeroext i1 @bitmap_test_and_clear_atomic(ptr noundef captures(none) %map, i64 noundef %start, i64 noundef %nr) local_unnamed_addr #2 {
entry:
  %div30 = lshr i64 %start, 6
  %add.ptr = getelementptr i64, ptr %map, i64 %div30
  %add = add i64 %start, %nr
  %and = and i64 %start, 63
  %shl = shl nsw i64 -1, %and
  %0 = or i64 %nr, %start
  %or.cond = icmp sgt i64 %0, -1
  br i1 %or.cond, label %if.end, label %if.else

if.else:                                          ; preds = %entry
  tail call void @__assert_fail(ptr noundef nonnull @.str, ptr noundef nonnull @.str.1, i32 noundef 297, ptr noundef nonnull @__PRETTY_FUNCTION__.bitmap_test_and_clear_atomic) #10
  unreachable

if.end:                                           ; preds = %entry
  %1 = trunc i64 %start to i32
  %2 = and i32 %1, 63
  %conv = sub nuw nsw i32 64, %2
  %conv4 = zext nneg i32 %conv to i64
  %sub5 = sub i64 %nr, %conv4
  %cmp6 = icmp sgt i64 %sub5, 0
  br i1 %cmp6, label %if.then8, label %if.end12

if.then8:                                         ; preds = %if.end
  %not = xor i64 %shl, -1
  %3 = atomicrmw and ptr %add.ptr, i64 %not seq_cst, align 8
  %and9 = and i64 %3, %shl
  %incdec.ptr = getelementptr i8, ptr %add.ptr, i64 8
  br label %if.end12

if.end12:                                         ; preds = %if.then8, %if.end
  %dirty.0 = phi i64 [ %and9, %if.then8 ], [ 0, %if.end ]
  %mask_to_clear.0 = phi i64 [ -1, %if.then8 ], [ %shl, %if.end ]
  %bits_to_clear.0 = phi i32 [ 64, %if.then8 ], [ %conv, %if.end ]
  %p.0 = phi ptr [ %incdec.ptr, %if.then8 ], [ %add.ptr, %if.end ]
  %nr.addr.0 = phi i64 [ %sub5, %if.then8 ], [ %nr, %if.end ]
  %cmp14 = icmp eq i32 %bits_to_clear.0, 64
  %cmp17 = icmp ugt i64 %nr.addr.0, 63
  %or.cond1 = and i1 %cmp14, %cmp17
  br i1 %or.cond1, label %while.body, label %if.end30

while.body:                                       ; preds = %if.end12, %if.end26
  %dirty.2 = phi i64 [ %dirty.3, %if.end26 ], [ %dirty.0, %if.end12 ]
  %p.2 = phi ptr [ %incdec.ptr28, %if.end26 ], [ %p.0, %if.end12 ]
  %nr.addr.2 = phi i64 [ %sub27, %if.end26 ], [ %nr.addr.0, %if.end12 ]
  %4 = load i64, ptr %p.2, align 8
  %tobool.not = icmp eq i64 %4, 0
  br i1 %tobool.not, label %if.end26, label %while.end

while.end:                                        ; preds = %while.body
  %5 = atomicrmw xchg ptr %p.2, i64 0 seq_cst, align 8
  %or25 = or i64 %5, %dirty.2
  br label %if.end26

if.end26:                                         ; preds = %while.end, %while.body
  %dirty.3 = phi i64 [ %or25, %while.end ], [ %dirty.2, %while.body ]
  %sub27 = add nsw i64 %nr.addr.2, -64
  %incdec.ptr28 = getelementptr i8, ptr %p.2, i64 8
  %cmp17.old = icmp ugt i64 %sub27, 63
  br i1 %cmp17.old, label %while.body, label %if.end30

if.end30:                                         ; preds = %if.end26, %if.end12
  %dirty.1 = phi i64 [ %dirty.0, %if.end12 ], [ %dirty.3, %if.end26 ]
  %p.1 = phi ptr [ %p.0, %if.end12 ], [ %incdec.ptr28, %if.end26 ]
  %nr.addr.1 = phi i64 [ %nr.addr.0, %if.end12 ], [ %sub27, %if.end26 ]
  %tobool31.not = icmp eq i64 %nr.addr.1, 0
  br i1 %tobool31.not, label %if.else41, label %if.then32

if.then32:                                        ; preds = %if.end30
  %sub33 = sub i64 0, %add
  %and34 = and i64 %sub33, 63
  %shr = lshr i64 -1, %and34
  %and35 = and i64 %mask_to_clear.0, %shr
  %not37 = xor i64 %and35, -1
  %6 = atomicrmw and ptr %p.1, i64 %not37 seq_cst, align 8
  %and39 = and i64 %6, %and35
  %or40 = or i64 %and39, %dirty.1
  %7 = icmp ne i64 %or40, 0
  br label %if.end45

if.else41:                                        ; preds = %if.end30
  %tobool42.not = icmp eq i64 %dirty.1, 0
  br i1 %tobool42.not, label %if.then43, label %if.end45

if.then43:                                        ; preds = %if.else41
  tail call void asm sideeffect "", "~{memory},~{dirflag},~{fpsr},~{flags}"() #11, !srcloc !17
  fence seq_cst
  br label %if.end45

if.end45:                                         ; preds = %if.else41, %if.then43, %if.then32
  %dirty.4 = phi i1 [ %7, %if.then32 ], [ true, %if.else41 ], [ false, %if.then43 ]
  ret i1 %dirty.4
}